target datalayout = "e-m:e-p270:32:32-p271:32:32-p272:64:64-i64:64-i128:128-f80:128-n8:16:32:64-S128"
target triple = "x86_64-pc-linux-gnu"

%struct.IDAMemRec = type { ptr, double, ptr, ptr, i32, double, double, ptr, i32, i32, ptr, ptr, i32, i32, i32, ptr, ptr, i32, i32, double, double, ptr, i32, i32, i32, i32, ptr, ptr, i32, ptr, ptr, ptr, i32, double, i32, i32, double, ptr, ptr, ptr, i32, ptr, ptr, i32, i32, i32, double, ptr, ptr, ptr, [6 x ptr], [6 x double], [6 x double], [6 x double], [6 x double], [6 x double], ptr, ptr, ptr, ptr, ptr, ptr, ptr, ptr, ptr, ptr, ptr, ptr, ptr, ptr, ptr, ptr, ptr, [6 x ptr], ptr, ptr, ptr, ptr, [6 x ptr], ptr, ptr, ptr, ptr, ptr, ptr, ptr, ptr, ptr, ptr, ptr, ptr, ptr, ptr, ptr, ptr, [6 x ptr], ptr, ptr, ptr, ptr, ptr, double, ptr, ptr, i32, i32, i32, i32, i32, i32, i32, i32, double, double, double, i32, double, i32, i32, i32, i32, i32, double, double, double, double, double, double, double, double, double, double, double, double, double, double, double, double, double, i32, i32, i32, i32, i64, double, double, double, double, double, double, double, double, double, i64, i64, i64, i64, i64, i64, i64, i64, i64, i64, i64, i64, i64, i64, i64, i64, i64, i64, i64, i64, i64, i64, i64, i64, i64, i64, double, i32, i32, i32, i32, i32, i32, i32, i32, i32, i32, i32, i32, i32, ptr, i32, ptr, i32, ptr, i32, ptr, ptr, ptr, ptr, ptr, ptr, i32, i32, ptr, ptr, ptr, ptr, ptr, ptr, ptr, double, i32, i32, ptr, i32, ptr, ptr, double, double, double, ptr, ptr, ptr, double, double, i32, i32, i64, ptr, i32, ptr, [5 x double], ptr, ptr, i32, ptr, i32 }

@.str = private unnamed_addr constant [119 x i8] c"generated/home/dtcxzyw/WorkSpace/Projects/compilers/llvm-opt-benchmark/bench/sundials/sundials/src/idas/idas_nls_stg.c\00", align 1
@.str.1 = private unnamed_addr constant [24 x i8] c"ida_mem = NULL illegal.\00", align 1
@__func__.idaNlsConvTestSensStg = private unnamed_addr constant [22 x i8] c"idaNlsConvTestSensStg\00", align 1

; Function Attrs: nounwind uwtable
define internal i32 @idaNlsConvTestSensStg(ptr noundef %0, ptr noundef %1, ptr noundef %2, double noundef %3, ptr noundef %4, ptr noundef %5) #0 {
  %7 = alloca i32, align 4
  %8 = alloca ptr, align 8
  %9 = alloca ptr, align 8
  %10 = alloca ptr, align 8
  %11 = alloca double, align 8
  %12 = alloca ptr, align 8
  %13 = alloca ptr, align 8
  %14 = alloca ptr, align 8
  %15 = alloca i32, align 4
  %16 = alloca i32, align 4
  %17 = alloca double, align 8
  %18 = alloca double, align 8
  %19 = alloca i32, align 4
  store ptr %0, ptr %8, align 8, !tbaa !7
  store ptr %1, ptr %9, align 8, !tbaa !40
  store ptr %2, ptr %10, align 8, !tbaa !40
  store double %3, ptr %11, align 8, !tbaa !62
  store ptr %4, ptr %12, align 8, !tbaa !40
  store ptr %5, ptr %13, align 8, !tbaa !3
  call void @llvm.lifetime.start.p0(i64 8, ptr %14) #3
  call void @llvm.lifetime.start.p0(i64 4, ptr %15) #3
  call void @llvm.lifetime.start.p0(i64 4, ptr %16) #3
  call void @llvm.lifetime.start.p0(i64 8, ptr %17) #3
  call void @llvm.lifetime.start.p0(i64 8, ptr %18) #3
  %20 = load ptr, ptr %13, align 8, !tbaa !3
  %21 = icmp eq ptr %20, null
  br i1 %21, label %22, label %23

22:                                               ; preds = %6
  call void (ptr, i32, i32, ptr, ptr, ptr, ...) @IDAProcessError(ptr noundef null, i32 noundef -20, i32 noundef 341, ptr noundef @__func__.idaNlsConvTestSensStg, ptr noundef @.str, ptr noundef @.str.1)
  store i32 -20, ptr %7, align 4
  store i32 1, ptr %19, align 4
  br label %77

23:                                               ; preds = %6
  %24 = load ptr, ptr %13, align 8, !tbaa !3
  store ptr %24, ptr %14, align 8, !tbaa !9
  %25 = load ptr, ptr %10, align 8, !tbaa !40
  %26 = load ptr, ptr %12, align 8, !tbaa !40
  %27 = call double @N_VWrmsNorm(ptr noundef %25, ptr noundef %26)
  store double %27, ptr %17, align 8, !tbaa !62
  %28 = load ptr, ptr %8, align 8, !tbaa !7
  %29 = call i32 @SUNNonlinSolGetCurIter(ptr noundef %28, ptr noundef %15)
  store i32 %29, ptr %16, align 4, !tbaa !32
  %30 = load i32, ptr %16, align 4, !tbaa !32
  %31 = icmp ne i32 %30, 0
  br i1 %31, label %32, label %33

32:                                               ; preds = %23
  store i32 -20, ptr %7, align 4
  store i32 1, ptr %19, align 4
  br label %77

33:                                               ; preds = %23
  %34 = load i32, ptr %15, align 4, !tbaa !32
  %35 = icmp eq i32 %34, 0
  br i1 %35, label %36, label %47

36:                                               ; preds = %33
  %37 = load double, ptr %17, align 8, !tbaa !62
  %38 = load ptr, ptr %14, align 8, !tbaa !9
  %39 = getelementptr inbounds nuw %struct.IDAMemRec, ptr %38, i32 0, i32 134
  store double %37, ptr %39, align 8, !tbaa !63
  %40 = load double, ptr %17, align 8, !tbaa !62
  %41 = load ptr, ptr %14, align 8, !tbaa !9
  %42 = getelementptr inbounds nuw %struct.IDAMemRec, ptr %41, i32 0, i32 137
  %43 = load double, ptr %42, align 8, !tbaa !64
  %44 = fcmp ole double %40, %43
  br i1 %44, label %45, label %46

45:                                               ; preds = %36
  store i32 0, ptr %7, align 4
  store i32 1, ptr %19, align 4
  br label %77

46:                                               ; preds = %36
  br label %67

47:                                               ; preds = %33
  %48 = load double, ptr %17, align 8, !tbaa !62
  %49 = load ptr, ptr %14, align 8, !tbaa !9
  %50 = getelementptr inbounds nuw %struct.IDAMemRec, ptr %49, i32 0, i32 134
  %51 = load double, ptr %50, align 8, !tbaa !63
  %52 = fdiv double %48, %51
  %53 = load i32, ptr %15, align 4, !tbaa !32
  %54 = sitofp i32 %53 to double
  %55 = fdiv double 1.000000e+00, %54
  %56 = call double @SUNRpowerR(double noundef %52, double noundef %55)
  store double %56, ptr %18, align 8, !tbaa !62
  %57 = load double, ptr %18, align 8, !tbaa !62
  %58 = fcmp ogt double %57, 9.000000e-01
  br i1 %58, label %59, label %60

59:                                               ; preds = %47
  store i32 902, ptr %7, align 4
  store i32 1, ptr %19, align 4
  br label %77

60:                                               ; preds = %47
  %61 = load double, ptr %18, align 8, !tbaa !62
  %62 = load double, ptr %18, align 8, !tbaa !62
  %63 = fsub double 1.000000e+00, %62
  %64 = fdiv double %61, %63
  %65 = load ptr, ptr %14, align 8, !tbaa !9
  %66 = getelementptr inbounds nuw %struct.IDAMemRec, ptr %65, i32 0, i32 138
  store double %64, ptr %66, align 8, !tbaa !65
  br label %67

67:                                               ; preds = %60, %46
  %68 = load ptr, ptr %14, align 8, !tbaa !9
  %69 = getelementptr inbounds nuw %struct.IDAMemRec, ptr %68, i32 0, i32 138
  %70 = load double, ptr %69, align 8, !tbaa !65
  %71 = load double, ptr %17, align 8, !tbaa !62
  %72 = fmul double %70, %71
  %73 = load double, ptr %11, align 8, !tbaa !62
  %74 = fcmp ole double %72, %73
  br i1 %74, label %75, label %76

75:                                               ; preds = %67
  store i32 0, ptr %7, align 4
  store i32 1, ptr %19, align 4
  br label %77

76:                                               ; preds = %67
  store i32 901, ptr %7, align 4
  store i32 1, ptr %19, align 4
  br label %77

77:                                               ; preds = %76, %75, %59, %45, %32, %22
  call void @llvm.lifetime.end.p0(i64 8, ptr %18) #3
  call void @llvm.lifetime.end.p0(i64 8, ptr %17) #3
  call void @llvm.lifetime.end.p0(i64 4, ptr %16) #3
  call void @llvm.lifetime.end.p0(i64 4, ptr %15) #3
  call void @llvm.lifetime.end.p0(i64 8, ptr %14) #3
  %78 = load i32, ptr %7, align 4
  ret i32 %78
}