; Function Attrs: nounwind uwtable
define internal range(i32 -20, 903) i32 @idaNlsConvTestSensStg(ptr noundef %0, ptr readnone captures(none) %1, ptr noundef %2, double noundef %3, ptr noundef %4, ptr noundef captures(address_is_null) %5) #0 {
  %7 = alloca i32, align 4
  call void @llvm.lifetime.start.p0(i64 4, ptr nonnull %7) #3
  %8 = icmp eq ptr %5, null
  br i1 %8, label %9, label %10

9:                                                ; preds = %6
  tail call void (ptr, i32, i32, ptr, ptr, ptr, ...) @IDAProcessError(ptr noundef null, i32 noundef -20, i32 noundef 341, ptr noundef nonnull @__func__.idaNlsConvTestSensStg, ptr noundef nonnull @.str, ptr noundef nonnull @.str.1) #3
  br label %36

10:                                               ; preds = %6
  %11 = tail call double @N_VWrmsNorm(ptr noundef %2, ptr noundef %4) #3
  %12 = call i32 @SUNNonlinSolGetCurIter(ptr noundef %0, ptr noundef nonnull %7) #3
  %.not = icmp eq i32 %12, 0
  br i1 %.not, label %13, label %36

13:                                               ; preds = %10
  %14 = load i32, ptr %7, align 4, !tbaa !57
  %15 = icmp eq i32 %14, 0
  %16 = getelementptr inbounds nuw i8, ptr %5, i64 1328
  br i1 %15, label %17, label %21

17:                                               ; preds = %13
  store double %11, ptr %16, align 8, !tbaa !58
  %18 = getelementptr inbounds nuw i8, ptr %5, i64 1352
  %19 = load double, ptr %18, align 8, !tbaa !59
  %20 = fcmp ugt double %11, %19
  br i1 %20, label %._crit_edge, label %36

._crit_edge:                                      ; preds = %17
  %.phi.trans.insert = getelementptr inbounds nuw i8, ptr %5, i64 1360
  %.pre = load double, ptr %.phi.trans.insert, align 8, !tbaa !60
  br label %32

21:                                               ; preds = %13
  %22 = load double, ptr %16, align 8, !tbaa !58
  %23 = fdiv double %11, %22
  %24 = sitofp i32 %14 to double
  %25 = fdiv double 1.000000e+00, %24
  %26 = call double @SUNRpowerR(double noundef %23, double noundef %25) #3
  %27 = fcmp ogt double %26, 9.000000e-01
  br i1 %27, label %36, label %28

28:                                               ; preds = %21
  %29 = fsub double 1.000000e+00, %26
  %30 = fdiv double %26, %29
  %31 = getelementptr inbounds nuw i8, ptr %5, i64 1360
  store double %30, ptr %31, align 8, !tbaa !60
  br label %32

32:                                               ; preds = %._crit_edge, %28
  %33 = phi double [ %.pre, %._crit_edge ], [ %30, %28 ]
  %34 = fmul double %11, %33
  %35 = fcmp ugt double %34, %3
  %. = select i1 %35, i32 901, i32 0
  br label %36

36:                                               ; preds = %32, %21, %17, %10, %9
  %.0 = phi i32 [ -20, %9 ], [ -20, %10 ], [ 0, %17 ], [ 902, %21 ], [ %., %32 ]
  call void @llvm.lifetime.end.p0(i64 4, ptr nonnull %7) #3
  ret i32 %.0
}